; Function Attrs: mustprogress uwtable
define noundef range(i32 0, 2) i32 @_ZNK6casadi13LinsolTridiag8init_memEPv(ptr noundef nonnull align 8 dereferenceable(184) %0, ptr noundef %1) unnamed_addr #4 align 2 personality ptr @__gxx_personality_v0 {
  %3 = tail call noundef i32 @_ZNK6casadi14LinsolInternal8init_memEPv(ptr noundef nonnull align 8 dereferenceable(184) %0, ptr noundef %1)
  %.not = icmp eq i32 %3, 0
  br i1 %.not, label %4, label %_ZNSt6vectorIdSaIdEE6resizeEm.exit9

4:                                                ; preds = %2
  %5 = getelementptr inbounds nuw i8, ptr %1, i64 64
  %6 = getelementptr inbounds nuw i8, ptr %0, i64 176
  %7 = tail call noundef i64 @_ZNK6casadi8Sparsity5size1Ev(ptr noundef nonnull align 8 dereferenceable(8) %6)
  %8 = getelementptr inbounds nuw i8, ptr %1, i64 72
  %9 = load ptr, ptr %8, align 8, !tbaa !22
  %10 = load ptr, ptr %5, align 8, !tbaa !25
  %11 = ptrtoint ptr %9 to i64
  %12 = ptrtoint ptr %10 to i64
  %13 = sub i64 %11, %12
  %14 = ashr exact i64 %13, 3
  %15 = icmp ugt i64 %7, %14
  br i1 %15, label %16, label %18

16:                                               ; preds = %4
  %17 = sub nuw i64 %7, %14
  tail call void @_ZNSt6vectorIdSaIdEE17_M_default_appendEm(ptr noundef nonnull align 8 dereferenceable(24) %5, i64 noundef %17)
  br label %_ZNSt6vectorIdSaIdEE6resizeEm.exit

18:                                               ; preds = %4
  %19 = icmp ult i64 %7, %14
  br i1 %19, label %20, label %_ZNSt6vectorIdSaIdEE6resizeEm.exit

20:                                               ; preds = %18
  %21 = getelementptr inbounds nuw double, ptr %10, i64 %7
  %.not.i.i = icmp eq ptr %9, %21
  br i1 %.not.i.i, label %_ZNSt6vectorIdSaIdEE6resizeEm.exit, label %22

22:                                               ; preds = %20
  store ptr %21, ptr %8, align 8, !tbaa !22
  br label %_ZNSt6vectorIdSaIdEE6resizeEm.exit

_ZNSt6vectorIdSaIdEE6resizeEm.exit:               ; preds = %16, %18, %20, %22
  %23 = getelementptr inbounds nuw i8, ptr %1, i64 88
  %24 = tail call noundef i64 @_ZNK6casadi8Sparsity5size1Ev(ptr noundef nonnull align 8 dereferenceable(8) %6)
  %25 = getelementptr inbounds nuw i8, ptr %1, i64 96
  %26 = load ptr, ptr %25, align 8, !tbaa !22
  %27 = load ptr, ptr %23, align 8, !tbaa !25
  %28 = ptrtoint ptr %26 to i64
  %29 = ptrtoint ptr %27 to i64
  %30 = sub i64 %28, %29
  %31 = ashr exact i64 %30, 3
  %32 = icmp ugt i64 %24, %31
  br i1 %32, label %33, label %35

33:                                               ; preds = %_ZNSt6vectorIdSaIdEE6resizeEm.exit
  %34 = sub nuw i64 %24, %31
  tail call void @_ZNSt6vectorIdSaIdEE17_M_default_appendEm(ptr noundef nonnull align 8 dereferenceable(24) %23, i64 noundef %34)
  br label %_ZNSt6vectorIdSaIdEE6resizeEm.exit7

35:                                               ; preds = %_ZNSt6vectorIdSaIdEE6resizeEm.exit
  %36 = icmp ult i64 %24, %31
  br i1 %36, label %37, label %_ZNSt6vectorIdSaIdEE6resizeEm.exit7

37:                                               ; preds = %35
  %38 = getelementptr inbounds nuw double, ptr %27, i64 %24
  %.not.i.i6 = icmp eq ptr %26, %38
  br i1 %.not.i.i6, label %_ZNSt6vectorIdSaIdEE6resizeEm.exit7, label %39

39:                                               ; preds = %37
  store ptr %38, ptr %25, align 8, !tbaa !22
  br label %_ZNSt6vectorIdSaIdEE6resizeEm.exit7

_ZNSt6vectorIdSaIdEE6resizeEm.exit7:              ; preds = %33, %35, %37, %39
  %40 = getelementptr inbounds nuw i8, ptr %1, i64 112
  %41 = tail call noundef i64 @_ZNK6casadi8Sparsity5size1Ev(ptr noundef nonnull align 8 dereferenceable(8) %6)
  %42 = getelementptr inbounds nuw i8, ptr %1, i64 120
  %43 = load ptr, ptr %42, align 8, !tbaa !22
  %44 = load ptr, ptr %40, align 8, !tbaa !25
  %45 = ptrtoint ptr %43 to i64
  %46 = ptrtoint ptr %44 to i64
  %47 = sub i64 %45, %46
  %48 = ashr exact i64 %47, 3
  %49 = icmp ugt i64 %41, %48
  br i1 %49, label %50, label %52

50:                                               ; preds = %_ZNSt6vectorIdSaIdEE6resizeEm.exit7
  %51 = sub nuw i64 %41, %48
  tail call void @_ZNSt6vectorIdSaIdEE17_M_default_appendEm(ptr noundef nonnull align 8 dereferenceable(24) %40, i64 noundef %51)
  br label %_ZNSt6vectorIdSaIdEE6resizeEm.exit9

52:                                               ; preds = %_ZNSt6vectorIdSaIdEE6resizeEm.exit7
  %53 = icmp ult i64 %41, %48
  br i1 %53, label %54, label %_ZNSt6vectorIdSaIdEE6resizeEm.exit9

54:                                               ; preds = %52
  %55 = getelementptr inbounds nuw double, ptr %44, i64 %41
  %.not.i.i8 = icmp eq ptr %43, %55
  br i1 %.not.i.i8, label %_ZNSt6vectorIdSaIdEE6resizeEm.exit9, label %56

56:                                               ; preds = %54
  store ptr %55, ptr %42, align 8, !tbaa !22
  br label %_ZNSt6vectorIdSaIdEE6resizeEm.exit9

_ZNSt6vectorIdSaIdEE6resizeEm.exit9:              ; preds = %56, %54, %52, %50, %2
  %.0 = phi i32 [ 1, %2 ], [ 0, %50 ], [ 0, %52 ], [ 0, %54 ], [ 0, %56 ]
  ret i32 %.0
}